; Function Attrs: mustprogress nounwind uwtable
define hidden void @_ZN11G1EvacStats10log_sizingEmm(ptr nocapture noundef nonnull readonly align 8 dereferenceable(144) %0, i64 noundef %1, i64 noundef %2) local_unnamed_addr #0 align 2 {
  %4 = load volatile ptr, ptr getelementptr inbounds (i8, ptr @_ZN16LogTagSetMappingILN6LogTag4typeE49ELS1_115ELS1_0ELS1_0ELS1_0ELS1_0EE7_tagsetE, i64 56), align 8
  %.not = icmp eq ptr %4, null
  br i1 %.not, label %10, label %5

5:                                                ; preds = %3
  %6 = getelementptr inbounds i8, ptr %0, i64 8
  %7 = load ptr, ptr %6, align 8
  %8 = shl i64 %1, 3
  %9 = shl i64 %2, 3
  tail call void (ptr, ...) @_ZN7LogImplILN6LogTag4typeE49ELS1_115ELS1_0ELS1_0ELS1_0ELS1_0EE5writeILN8LogLevel4typeE2EEEvPKcz(ptr noundef nonnull @.str.5, ptr noundef %7, i64 noundef %8, i64 noundef %9)
  br label %10

10:                                               ; preds = %3, %5
  ret void
}